(i__main__
LogFile
p0
(dp1
S'_installed_files'
p2
(dp3
S'../Examples/EDM2RootAlg/python'
p4
(dp5
S'../../../Examples/EDM2RootAlg/python/EDM2RootAlg/__init__.py'
p6
S'../../../InstallArea/python/EDM2RootAlg/__init__.py'
p7
ssS'../../../Examples/EDM2RootAlg/amd64_linux26/libEDM2RootAlg.so'
p8
S'../../../InstallArea/amd64_linux26/lib/libEDM2RootAlg.so'
p9
ssb.